target datalayout = "e-m:e-p270:32:32-p271:32:32-p272:64:64-i64:64-i128:128-f80:128-n8:16:32:64-S128"
target triple = "x86_64-pc-linux-gnu"

%"class.std::optional" = type { %"struct.std::_Optional_base" }
%"struct.std::_Optional_base" = type { %"struct.std::_Optional_payload" }
%"struct.std::_Optional_payload" = type { %"struct.std::_Optional_payload_base.base", [7 x i8] }
%"struct.std::_Optional_payload_base.base" = type <{ %"union.std::_Optional_payload_base<llvm::DWARFFormValue>::_Storage", i8 }>
%"union.std::_Optional_payload_base<llvm::DWARFFormValue>::_Storage" = type { %"class.llvm::DWARFFormValue" }
%"class.llvm::DWARFFormValue" = type { i16, i8, %"struct.llvm::DWARFFormValue::ValueType", ptr, ptr }
%"struct.llvm::DWARFFormValue::ValueType" = type { %union.anon, ptr, i64 }
%union.anon = type { i64 }
%"class.llvm::ArrayRef" = type { ptr, i64 }
%"class.llvm::DWARFDie" = type { ptr, ptr }
%"class.llvm::DWARFDebugInfoEntry" = type { i64, i32, i32, ptr }
%"struct.std::_Optional_payload_base" = type <{ %"union.std::_Optional_payload_base<llvm::DWARFFormValue>::_Storage", i8, [7 x i8] }>

; Function Attrs: mustprogress nounwind uwtable
define linkonce_odr hidden void @_ZNSt22_Optional_payload_baseIN4llvm14DWARFFormValueEE8_StorageIS1_Lb1EEC2Ev(ptr noundef nonnull align 8 dereferenceable(48) %0) unnamed_addr #0 comdat align 2 {
  %2 = alloca ptr, align 8
  store ptr %0, ptr %2, align 8
  ret void
}

; Function Attrs: mustprogress nounwind uwtable
define linkonce_odr hidden void @_ZNSt22_Optional_payload_baseIN4llvm14DWARFFormValueEEC2Ev(ptr noundef nonnull align 8 dereferenceable(49) %0) unnamed_addr #0 comdat align 2 {
  %2 = alloca ptr, align 8
  store ptr %0, ptr %2, align 8
  %3 = load ptr, ptr %2, align 8
  %4 = getelementptr inbounds nuw %"struct.std::_Optional_payload_base", ptr %3, i32 0, i32 0
  call void @_ZNSt22_Optional_payload_baseIN4llvm14DWARFFormValueEE8_StorageIS1_Lb1EEC2Ev(ptr noundef nonnull align 8 dereferenceable(48) %4) #13
  %5 = getelementptr inbounds nuw %"struct.std::_Optional_payload_base", ptr %3, i32 0, i32 1
  store i8 0, ptr %5, align 8
  ret void
}

; Function Attrs: mustprogress nounwind uwtable
define linkonce_odr hidden void @_ZNSt17_Optional_payloadIN4llvm14DWARFFormValueELb1ELb1ELb1EEC2Ev(ptr noundef nonnull align 8 dereferenceable(49) %0) unnamed_addr #0 comdat align 2 {
  %2 = alloca ptr, align 8
  store ptr %0, ptr %2, align 8
  %3 = load ptr, ptr %2, align 8
  call void @_ZNSt22_Optional_payload_baseIN4llvm14DWARFFormValueEEC2Ev(ptr noundef nonnull align 8 dereferenceable(49) %3) #13
  ret void
}

; Function Attrs: mustprogress nounwind uwtable
define linkonce_odr hidden noundef zeroext i1 @_ZNKSt19_Optional_base_implIN4llvm14DWARFFormValueESt14_Optional_baseIS1_Lb1ELb1EEE13_M_is_engagedEv(ptr noundef nonnull align 1 dereferenceable(1) %0) #0 comdat align 2 {
  %2 = alloca ptr, align 8
  store ptr %0, ptr %2, align 8
  %3 = load ptr, ptr %2, align 8
  %4 = getelementptr inbounds nuw %"struct.std::_Optional_base", ptr %3, i32 0, i32 0
  %5 = getelementptr inbounds nuw %"struct.std::_Optional_payload_base", ptr %4, i32 0, i32 1
  %6 = load i8, ptr %5, align 8
  %7 = trunc i8 %6 to i1
  ret i1 %7
}

; Function Attrs: mustprogress nounwind uwtable
define linkonce_odr hidden noundef i64 @_ZNK4llvm19DWARFDebugInfoEntry9getOffsetEv(ptr noundef nonnull align 8 dereferenceable(24) %0) #0 comdat align 2 {
  %2 = alloca ptr, align 8
  store ptr %0, ptr %2, align 8
  %3 = load ptr, ptr %2, align 8
  %4 = getelementptr inbounds nuw %"class.llvm::DWARFDebugInfoEntry", ptr %3, i32 0, i32 0
  %5 = load i64, ptr %4, align 8
  ret i64 %5
}

; Function Attrs: mustprogress nounwind uwtable
define linkonce_odr hidden noundef ptr @_ZNK4llvm19DWARFDebugInfoEntry29getAbbreviationDeclarationPtrEv(ptr noundef nonnull align 8 dereferenceable(24) %0) #0 comdat align 2 {
  %2 = alloca ptr, align 8
  store ptr %0, ptr %2, align 8
  %3 = load ptr, ptr %2, align 8
  %4 = getelementptr inbounds nuw %"class.llvm::DWARFDebugInfoEntry", ptr %3, i32 0, i32 3
  %5 = load ptr, ptr %4, align 8
  ret ptr %5
}

; Function Attrs: mustprogress nounwind uwtable
define linkonce_odr hidden void @_ZNSt14_Optional_baseIN4llvm14DWARFFormValueELb1ELb1EEC2Ev(ptr noundef nonnull align 8 dereferenceable(56) %0) unnamed_addr #0 comdat align 2 {
  %2 = alloca ptr, align 8
  store ptr %0, ptr %2, align 8
  %3 = load ptr, ptr %2, align 8
  %4 = getelementptr inbounds nuw %"struct.std::_Optional_base", ptr %3, i32 0, i32 0
  call void @_ZNSt17_Optional_payloadIN4llvm14DWARFFormValueELb1ELb1ELb1EEC2Ev(ptr noundef nonnull align 8 dereferenceable(49) %4) #13
  ret void
}

; Function Attrs: mustprogress nounwind uwtable
define linkonce_odr hidden noundef zeroext i1 @_ZNKSt8optionalIN4llvm14DWARFFormValueEEcvbEv(ptr noundef nonnull align 8 dereferenceable(56) %0) #0 comdat align 2 {
  %2 = alloca ptr, align 8
  store ptr %0, ptr %2, align 8
  %3 = load ptr, ptr %2, align 8
  %4 = call noundef zeroext i1 @_ZNKSt19_Optional_base_implIN4llvm14DWARFFormValueESt14_Optional_baseIS1_Lb1ELb1EEE13_M_is_engagedEv(ptr noundef nonnull align 1 dereferenceable(1) %3) #13
  ret i1 %4
}

; Function Attrs: mustprogress nounwind uwtable
define linkonce_odr hidden noundef i64 @_ZNK4llvm8DWARFDie9getOffsetEv(ptr noundef nonnull align 8 dereferenceable(16) %0) #0 comdat align 2 {
  %2 = alloca ptr, align 8
  store ptr %0, ptr %2, align 8
  %3 = load ptr, ptr %2, align 8
  %4 = getelementptr inbounds nuw %"class.llvm::DWARFDie", ptr %3, i32 0, i32 1
  %5 = load ptr, ptr %4, align 8
  %6 = call noundef i64 @_ZNK4llvm19DWARFDebugInfoEntry9getOffsetEv(ptr noundef nonnull align 8 dereferenceable(24) %5)
  ret i64 %6
}

; Function Attrs: mustprogress nounwind uwtable
define linkonce_odr hidden noundef ptr @_ZNK4llvm8ArrayRefINS_5dwarf9AttributeEE3endEv(ptr noundef nonnull align 8 dereferenceable(16) %0) #0 comdat align 2 {
  %2 = alloca ptr, align 8
  store ptr %0, ptr %2, align 8
  %3 = load ptr, ptr %2, align 8
  %4 = getelementptr inbounds nuw %"class.llvm::ArrayRef", ptr %3, i32 0, i32 0
  %5 = load ptr, ptr %4, align 8
  %6 = getelementptr inbounds nuw %"class.llvm::ArrayRef", ptr %3, i32 0, i32 1
  %7 = load i64, ptr %6, align 8
  %8 = getelementptr inbounds i16, ptr %5, i64 %7
  ret ptr %8
}

; Function Attrs: mustprogress nounwind uwtable
define linkonce_odr hidden noundef ptr @_ZNK4llvm8ArrayRefINS_5dwarf9AttributeEE5beginEv(ptr noundef nonnull align 8 dereferenceable(16) %0) #0 comdat align 2 {
  %2 = alloca ptr, align 8
  store ptr %0, ptr %2, align 8
  %3 = load ptr, ptr %2, align 8
  %4 = getelementptr inbounds nuw %"class.llvm::ArrayRef", ptr %3, i32 0, i32 0
  %5 = load ptr, ptr %4, align 8
  ret ptr %5
}

; Function Attrs: mustprogress nounwind uwtable
define linkonce_odr hidden noundef ptr @_ZNK4llvm8DWARFDie29getAbbreviationDeclarationPtrEv(ptr noundef nonnull align 8 dereferenceable(16) %0) #0 comdat align 2 {
  %2 = alloca ptr, align 8
  store ptr %0, ptr %2, align 8
  %3 = load ptr, ptr %2, align 8
  %4 = getelementptr inbounds nuw %"class.llvm::DWARFDie", ptr %3, i32 0, i32 1
  %5 = load ptr, ptr %4, align 8
  %6 = call noundef ptr @_ZNK4llvm19DWARFDebugInfoEntry29getAbbreviationDeclarationPtrEv(ptr noundef nonnull align 8 dereferenceable(24) %5)
  ret ptr %6
}

; Function Attrs: mustprogress nounwind uwtable
define linkonce_odr hidden void @_ZNSt8optionalIN4llvm14DWARFFormValueEEC2ESt9nullopt_t(ptr noundef nonnull align 8 dereferenceable(56) %0) unnamed_addr #0 comdat align 2 {
  %2 = alloca ptr, align 8
  store ptr %0, ptr %2, align 8
  %3 = load ptr, ptr %2, align 8
  call void @_ZNSt14_Optional_baseIN4llvm14DWARFFormValueELb1ELb1EEC2Ev(ptr noundef nonnull align 8 dereferenceable(56) %3) #13
  ret void
}

; Function Attrs: mustprogress nounwind uwtable
define linkonce_odr hidden noundef zeroext i1 @_ZNK4llvm8DWARFDie7isValidEv(ptr noundef nonnull align 8 dereferenceable(16) %0) #0 comdat align 2 {
  %2 = alloca ptr, align 8
  store ptr %0, ptr %2, align 8
  %3 = load ptr, ptr %2, align 8
  %4 = getelementptr inbounds nuw %"class.llvm::DWARFDie", ptr %3, i32 0, i32 0
  %5 = load ptr, ptr %4, align 8
  %6 = icmp ne ptr %5, null
  br i1 %6, label %7, label %11

7:                                                ; preds = %1
  %8 = getelementptr inbounds nuw %"class.llvm::DWARFDie", ptr %3, i32 0, i32 1
  %9 = load ptr, ptr %8, align 8
  %10 = icmp ne ptr %9, null
  br label %11

11:                                               ; preds = %7, %1
  %12 = phi i1 [ false, %1 ], [ %10, %7 ]
  ret i1 %12
}

; Function Attrs: mustprogress nounwind uwtable
define dso_local void @_ZNK4llvm8DWARFDie4findENS_8ArrayRefINS_5dwarf9AttributeEEE(ptr dead_on_unwind noalias writable sret(%"class.std::optional") align 8 %0, ptr noundef nonnull align 8 dereferenceable(16) %1, ptr %2, i64 %3) #0 align 2 {
  %5 = alloca %"class.llvm::ArrayRef", align 8
  %6 = alloca ptr, align 8
  %7 = alloca ptr, align 8
  %8 = alloca ptr, align 8
  %9 = alloca ptr, align 8
  %10 = alloca ptr, align 8
  %11 = alloca i16, align 2
  %12 = getelementptr inbounds nuw { ptr, i64 }, ptr %5, i32 0, i32 0
  store ptr %2, ptr %12, align 8
  %13 = getelementptr inbounds nuw { ptr, i64 }, ptr %5, i32 0, i32 1
  store i64 %3, ptr %13, align 8
  store ptr %1, ptr %6, align 8
  %14 = load ptr, ptr %6, align 8
  %15 = call noundef zeroext i1 @_ZNK4llvm8DWARFDie7isValidEv(ptr noundef nonnull align 8 dereferenceable(16) %14)
  br i1 %15, label %17, label %16

16:                                               ; preds = %4
  call void @_ZNSt8optionalIN4llvm14DWARFFormValueEEC2ESt9nullopt_t(ptr noundef nonnull align 8 dereferenceable(56) %0) #13
  br label %46

17:                                               ; preds = %4
  %18 = call noundef ptr @_ZNK4llvm8DWARFDie29getAbbreviationDeclarationPtrEv(ptr noundef nonnull align 8 dereferenceable(16) %14)
  store ptr %18, ptr %7, align 8
  %19 = load ptr, ptr %7, align 8
  %20 = icmp ne ptr %19, null
  br i1 %20, label %21, label %45

21:                                               ; preds = %17
  store ptr %5, ptr %8, align 8
  %22 = load ptr, ptr %8, align 8
  %23 = call noundef ptr @_ZNK4llvm8ArrayRefINS_5dwarf9AttributeEE5beginEv(ptr noundef nonnull align 8 dereferenceable(16) %22)
  store ptr %23, ptr %9, align 8
  %24 = load ptr, ptr %8, align 8
  %25 = call noundef ptr @_ZNK4llvm8ArrayRefINS_5dwarf9AttributeEE3endEv(ptr noundef nonnull align 8 dereferenceable(16) %24)
  store ptr %25, ptr %10, align 8
  br label %26

26:                                               ; preds = %41, %21
  %27 = load ptr, ptr %9, align 8
  %28 = load ptr, ptr %10, align 8
  %29 = icmp ne ptr %27, %28
  br i1 %29, label %30, label %44

30:                                               ; preds = %26
  %31 = load ptr, ptr %9, align 8
  %32 = load i16, ptr %31, align 2
  store i16 %32, ptr %11, align 2
  %33 = load ptr, ptr %7, align 8
  %34 = call noundef i64 @_ZNK4llvm8DWARFDie9getOffsetEv(ptr noundef nonnull align 8 dereferenceable(16) %14)
  %35 = load i16, ptr %11, align 2
  %36 = getelementptr inbounds nuw %"class.llvm::DWARFDie", ptr %14, i32 0, i32 0
  %37 = load ptr, ptr %36, align 8
  call void @_ZNK4llvm28DWARFAbbreviationDeclaration17getAttributeValueEmNS_5dwarf9AttributeERKNS_9DWARFUnitE(ptr dead_on_unwind writable sret(%"class.std::optional") align 8 %0, ptr noundef nonnull align 8 dereferenceable(160) %33, i64 noundef %34, i16 noundef zeroext %35, ptr noundef nonnull align 8 dereferenceable(448) %37)
  %38 = call noundef zeroext i1 @_ZNKSt8optionalIN4llvm14DWARFFormValueEEcvbEv(ptr noundef nonnull align 8 dereferenceable(56) %0) #13
  br i1 %38, label %39, label %40

39:                                               ; preds = %30
  br label %46

40:                                               ; preds = %30
  br label %41

41:                                               ; preds = %40
  %42 = load ptr, ptr %9, align 8
  %43 = getelementptr inbounds i16, ptr %42, i32 1
  store ptr %43, ptr %9, align 8
  br label %26

44:                                               ; preds = %26
  br label %45

45:                                               ; preds = %44, %17
  call void @_ZNSt8optionalIN4llvm14DWARFFormValueEEC2ESt9nullopt_t(ptr noundef nonnull align 8 dereferenceable(56) %0) #13
  br label %46

46:                                               ; preds = %45, %39, %16
  ret void
}