; Function Attrs: mustprogress nounwind uwtable
define dso_local void @_ZNK4llvm8DWARFDie4findENS_8ArrayRefINS_5dwarf9AttributeEEE(ptr dead_on_unwind noalias writable sret(%"class.std::optional") align 8 %0, ptr noundef nonnull readonly align 8 captures(none) dereferenceable(16) %1, ptr readonly %2, i64 %3) local_unnamed_addr #0 align 2 {
  %5 = load ptr, ptr %1, align 8
  %.not.i = icmp ne ptr %5, null
  %6 = getelementptr inbounds nuw i8, ptr %1, i64 8
  %7 = load ptr, ptr %6, align 8
  %8 = icmp ne ptr %7, null
  %9 = select i1 %.not.i, i1 %8, i1 false
  br i1 %9, label %10, label %.loopexit12.sink.split

10:                                               ; preds = %4
  %11 = getelementptr inbounds nuw i8, ptr %7, i64 16
  %12 = load ptr, ptr %11, align 8
  %.not = icmp eq ptr %12, null
  br i1 %.not, label %.loopexit12.sink.split, label %13

13:                                               ; preds = %10
  %14 = getelementptr inbounds i16, ptr %2, i64 %3
  %.not1013 = icmp eq i64 %3, 0
  br i1 %.not1013, label %.loopexit12.sink.split, label %.lr.ph

.lr.ph:                                           ; preds = %13
  %15 = getelementptr inbounds nuw i8, ptr %0, i64 48
  br label %18

16:                                               ; preds = %18
  %17 = getelementptr inbounds nuw i8, ptr %.014, i64 2
  %.not10 = icmp eq ptr %17, %14
  br i1 %.not10, label %.loopexit12.sink.split, label %18

18:                                               ; preds = %.lr.ph, %16
  %.014 = phi ptr [ %2, %.lr.ph ], [ %17, %16 ]
  %19 = load i16, ptr %.014, align 2
  %20 = load ptr, ptr %6, align 8
  %21 = load i64, ptr %20, align 8
  %22 = load ptr, ptr %1, align 8
  tail call void @_ZNK4llvm28DWARFAbbreviationDeclaration17getAttributeValueEmNS_5dwarf9AttributeERKNS_9DWARFUnitE(ptr dead_on_unwind writable sret(%"class.std::optional") align 8 %0, ptr noundef nonnull align 8 dereferenceable(160) %12, i64 noundef %21, i16 noundef zeroext %19, ptr noundef nonnull align 8 dereferenceable(448) %22) #19
  %23 = load i8, ptr %15, align 8
  %24 = trunc i8 %23 to i1
  br i1 %24, label %.loopexit12, label %16

.loopexit12.sink.split:                           ; preds = %16, %10, %13, %4
  %25 = getelementptr inbounds nuw i8, ptr %0, i64 48
  store i8 0, ptr %25, align 8
  br label %.loopexit12

.loopexit12:                                      ; preds = %18, %.loopexit12.sink.split
  ret void
}